(dp1
S'shortname'
p2
V\u6c38\u6052\u65f6\u5149
p3
sS'desc'
p4
V
sS'name'
p5
V\u6c38\u6052\u65f6\u5149\u79d1\u6280\u6709\u9650\u516c\u53f8
p6
sS'welcome'
p7
V\u6c38\u6052\u65f6\u5149\u6b22\u8fce\u60a8
p8
sS'location'
p9
V
s.